; Function Attrs: nounwind uwtable
define internal void @VULKAN_ReleaseShader(ptr noundef captures(none) %0, ptr noundef %1) #0 {
  %3 = getelementptr inbounds nuw i8, ptr %0, i64 2472
  %4 = load ptr, ptr %3, align 8
  tail call void @SDL_LockMutex_REAL(ptr noundef %4) #13
  %5 = getelementptr inbounds nuw i8, ptr %0, i64 2440
  %6 = load i32, ptr %5, align 8
  %7 = add i32 %6, 1
  %8 = getelementptr inbounds nuw i8, ptr %0, i64 2444
  %9 = load i32, ptr %8, align 4
  %.not = icmp ult i32 %7, %9
  br i1 %.not, label %._crit_edge, label %10

._crit_edge:                                      ; preds = %2
  %.phi.trans.insert = getelementptr inbounds nuw i8, ptr %0, i64 2432
  %.pre = load ptr, ptr %.phi.trans.insert, align 8
  br label %17

10:                                               ; preds = %2
  %11 = shl i32 %9, 1
  store i32 %11, ptr %8, align 4
  %12 = getelementptr inbounds nuw i8, ptr %0, i64 2432
  %13 = load ptr, ptr %12, align 8
  %14 = zext i32 %11 to i64
  %15 = shl nuw nsw i64 %14, 3
  %16 = tail call ptr @SDL_realloc_REAL(ptr noundef %13, i64 noundef %15) #16
  store ptr %16, ptr %12, align 8
  %.pre15 = load i32, ptr %5, align 8
  br label %17

17:                                               ; preds = %._crit_edge, %10
  %18 = phi i32 [ %6, %._crit_edge ], [ %.pre15, %10 ]
  %19 = phi ptr [ %.pre, %._crit_edge ], [ %16, %10 ]
  %20 = zext i32 %18 to i64
  %21 = getelementptr inbounds nuw ptr, ptr %19, i64 %20
  store ptr %1, ptr %21, align 8
  %22 = load i32, ptr %5, align 8
  %23 = add i32 %22, 1
  store i32 %23, ptr %5, align 8
  %24 = load ptr, ptr %3, align 8
  tail call void @SDL_UnlockMutex_REAL(ptr noundef %24) #13
  ret void
}